target datalayout = "e-m:e-p270:32:32-p271:32:32-p272:64:64-i64:64-i128:128-f80:128-n8:16:32:64-S128"
target triple = "x86_64-pc-linux-gnu"

%struct.IpvideoContext = type { ptr, %struct.HpelDSPContext, ptr, ptr, ptr, ptr, ptr, i32, ptr, i32, i32, %struct.GetByteContext, %struct.GetByteContext, ptr, i32, i32, i32, [256 x i32] }
%struct.HpelDSPContext = type { [4 x [4 x ptr]], [4 x [4 x ptr]], [4 x [4 x ptr]], [4 x ptr] }
%struct.GetByteContext = type { ptr, ptr, ptr }

; Function Attrs: alwaysinline nounwind uwtable
define internal i32 @bytestream_get_byte(ptr noundef %0) #4 {
  %2 = alloca ptr, align 8
  store ptr %0, ptr %2, align 8, !tbaa !94
  %3 = load ptr, ptr %2, align 8, !tbaa !94
  %4 = load ptr, ptr %3, align 8, !tbaa !59
  %5 = getelementptr inbounds i8, ptr %4, i64 1
  store ptr %5, ptr %3, align 8, !tbaa !59
  %6 = load ptr, ptr %2, align 8, !tbaa !94
  %7 = load ptr, ptr %6, align 8, !tbaa !59
  %8 = getelementptr inbounds i8, ptr %7, i64 -1
  %9 = getelementptr inbounds i8, ptr %8, i64 0
  %10 = load i8, ptr %9, align 1, !tbaa !62
  %11 = zext i8 %10 to i32
  ret i32 %11
}

; Function Attrs: alwaysinline nounwind uwtable
define internal i32 @bytestream_get_le16(ptr noundef %0) #4 {
  %2 = alloca ptr, align 8
  store ptr %0, ptr %2, align 8, !tbaa !94
  %3 = load ptr, ptr %2, align 8, !tbaa !94
  %4 = load ptr, ptr %3, align 8, !tbaa !59
  %5 = getelementptr inbounds i8, ptr %4, i64 2
  store ptr %5, ptr %3, align 8, !tbaa !59
  %6 = load ptr, ptr %2, align 8, !tbaa !94
  %7 = load ptr, ptr %6, align 8, !tbaa !59
  %8 = getelementptr inbounds i8, ptr %7, i64 -2
  %9 = load i16, ptr %8, align 1, !tbaa !62
  %10 = zext i16 %9 to i32
  ret i32 %10
}

; Function Attrs: alwaysinline nounwind uwtable
define internal i32 @bytestream2_get_byteu(ptr noundef %0) #4 {
  %2 = alloca ptr, align 8
  store ptr %0, ptr %2, align 8, !tbaa !67
  %3 = load ptr, ptr %2, align 8, !tbaa !67
  %4 = getelementptr inbounds nuw %struct.GetByteContext, ptr %3, i32 0, i32 0
  %5 = call i32 @bytestream_get_byte(ptr noundef %4)
  ret i32 %5
}

; Function Attrs: alwaysinline nounwind uwtable
define internal i32 @bytestream2_get_le16u(ptr noundef %0) #4 {
  %2 = alloca ptr, align 8
  store ptr %0, ptr %2, align 8, !tbaa !67
  %3 = load ptr, ptr %2, align 8, !tbaa !67
  %4 = getelementptr inbounds nuw %struct.GetByteContext, ptr %3, i32 0, i32 0
  %5 = call i32 @bytestream_get_le16(ptr noundef %4)
  ret i32 %5
}

; Function Attrs: alwaysinline nounwind uwtable
define internal i32 @bytestream2_get_byte(ptr noundef %0) #4 {
  %2 = alloca i32, align 4
  %3 = alloca ptr, align 8
  store ptr %0, ptr %3, align 8, !tbaa !67
  %4 = load ptr, ptr %3, align 8, !tbaa !67
  %5 = getelementptr inbounds nuw %struct.GetByteContext, ptr %4, i32 0, i32 1
  %6 = load ptr, ptr %5, align 8, !tbaa !71
  %7 = load ptr, ptr %3, align 8, !tbaa !67
  %8 = getelementptr inbounds nuw %struct.GetByteContext, ptr %7, i32 0, i32 0
  %9 = load ptr, ptr %8, align 8, !tbaa !69
  %10 = ptrtoint ptr %6 to i64
  %11 = ptrtoint ptr %9 to i64
  %12 = sub i64 %10, %11
  %13 = icmp slt i64 %12, 1
  br i1 %13, label %14, label %20

14:                                               ; preds = %1
  %15 = load ptr, ptr %3, align 8, !tbaa !67
  %16 = getelementptr inbounds nuw %struct.GetByteContext, ptr %15, i32 0, i32 1
  %17 = load ptr, ptr %16, align 8, !tbaa !71
  %18 = load ptr, ptr %3, align 8, !tbaa !67
  %19 = getelementptr inbounds nuw %struct.GetByteContext, ptr %18, i32 0, i32 0
  store ptr %17, ptr %19, align 8, !tbaa !69
  store i32 0, ptr %2, align 4
  br label %23

20:                                               ; preds = %1
  %21 = load ptr, ptr %3, align 8, !tbaa !67
  %22 = call i32 @bytestream2_get_byteu(ptr noundef %21)
  store i32 %22, ptr %2, align 4
  br label %23

23:                                               ; preds = %20, %14
  %24 = load i32, ptr %2, align 4
  ret i32 %24
}

; Function Attrs: alwaysinline nounwind uwtable
define internal i32 @bytestream2_get_le16(ptr noundef %0) #4 {
  %2 = alloca i32, align 4
  %3 = alloca ptr, align 8
  store ptr %0, ptr %3, align 8, !tbaa !67
  %4 = load ptr, ptr %3, align 8, !tbaa !67
  %5 = getelementptr inbounds nuw %struct.GetByteContext, ptr %4, i32 0, i32 1
  %6 = load ptr, ptr %5, align 8, !tbaa !71
  %7 = load ptr, ptr %3, align 8, !tbaa !67
  %8 = getelementptr inbounds nuw %struct.GetByteContext, ptr %7, i32 0, i32 0
  %9 = load ptr, ptr %8, align 8, !tbaa !69
  %10 = ptrtoint ptr %6 to i64
  %11 = ptrtoint ptr %9 to i64
  %12 = sub i64 %10, %11
  %13 = icmp slt i64 %12, 2
  br i1 %13, label %14, label %20

14:                                               ; preds = %1
  %15 = load ptr, ptr %3, align 8, !tbaa !67
  %16 = getelementptr inbounds nuw %struct.GetByteContext, ptr %15, i32 0, i32 1
  %17 = load ptr, ptr %16, align 8, !tbaa !71
  %18 = load ptr, ptr %3, align 8, !tbaa !67
  %19 = getelementptr inbounds nuw %struct.GetByteContext, ptr %18, i32 0, i32 0
  store ptr %17, ptr %19, align 8, !tbaa !69
  store i32 0, ptr %2, align 4
  br label %23

20:                                               ; preds = %1
  %21 = load ptr, ptr %3, align 8, !tbaa !67
  %22 = call i32 @bytestream2_get_le16u(ptr noundef %21)
  store i32 %22, ptr %2, align 4
  br label %23

23:                                               ; preds = %20, %14
  %24 = load i32, ptr %2, align 4
  ret i32 %24
}

; Function Attrs: nounwind uwtable
define internal i32 @ipvideo_decode_block_opcode_0x7_16(ptr noundef %0, ptr noundef %1) #1 {
  %3 = alloca ptr, align 8
  %4 = alloca ptr, align 8
  %5 = alloca i32, align 4
  %6 = alloca i32, align 4
  %7 = alloca [2 x i16], align 2
  %8 = alloca i32, align 4
  %9 = alloca ptr, align 8
  store ptr %0, ptr %3, align 8, !tbaa !29
  store ptr %1, ptr %4, align 8, !tbaa !53
  call void @llvm.lifetime.start.p0(i64 4, ptr %5) #11
  call void @llvm.lifetime.start.p0(i64 4, ptr %6) #11
  call void @llvm.lifetime.start.p0(i64 4, ptr %7) #11
  call void @llvm.lifetime.start.p0(i64 4, ptr %8) #11
  call void @llvm.lifetime.start.p0(i64 8, ptr %9) #11
  %10 = load ptr, ptr %3, align 8, !tbaa !29
  %11 = getelementptr inbounds nuw %struct.IpvideoContext, ptr %10, i32 0, i32 13
  %12 = load ptr, ptr %11, align 8, !tbaa !77
  store ptr %12, ptr %9, align 8, !tbaa !135
  %13 = load ptr, ptr %3, align 8, !tbaa !29
  %14 = getelementptr inbounds nuw %struct.IpvideoContext, ptr %13, i32 0, i32 11
  %15 = call i32 @bytestream2_get_le16(ptr noundef %14)
  %16 = trunc i32 %15 to i16
  %17 = getelementptr inbounds [2 x i16], ptr %7, i64 0, i64 0
  store i16 %16, ptr %17, align 2, !tbaa !75
  %18 = load ptr, ptr %3, align 8, !tbaa !29
  %19 = getelementptr inbounds nuw %struct.IpvideoContext, ptr %18, i32 0, i32 11
  %20 = call i32 @bytestream2_get_le16(ptr noundef %19)
  %21 = trunc i32 %20 to i16
  %22 = getelementptr inbounds [2 x i16], ptr %7, i64 0, i64 1
  store i16 %21, ptr %22, align 2, !tbaa !75
  %23 = getelementptr inbounds [2 x i16], ptr %7, i64 0, i64 0
  %24 = load i16, ptr %23, align 2, !tbaa !75
  %25 = zext i16 %24 to i32
  %26 = and i32 %25, 32768
  %27 = icmp ne i32 %26, 0
  br i1 %27, label %62, label %28

28:                                               ; preds = %2
  store i32 0, ptr %6, align 4, !tbaa !61
  br label %29

29:                                               ; preds = %58, %28
  %30 = load i32, ptr %6, align 4, !tbaa !61
  %31 = icmp slt i32 %30, 8
  br i1 %31, label %32, label %61

32:                                               ; preds = %29
  %33 = load ptr, ptr %3, align 8, !tbaa !29
  %34 = getelementptr inbounds nuw %struct.IpvideoContext, ptr %33, i32 0, i32 11
  %35 = call i32 @bytestream2_get_byte(ptr noundef %34)
  %36 = or i32 %35, 256
  store i32 %36, ptr %8, align 4, !tbaa !61
  br label %37

37:                                               ; preds = %48, %32
  %38 = load i32, ptr %8, align 4, !tbaa !61
  %39 = icmp ne i32 %38, 1
  br i1 %39, label %40, label %51

40:                                               ; preds = %37
  %41 = load i32, ptr %8, align 4, !tbaa !61
  %42 = and i32 %41, 1
  %43 = zext i32 %42 to i64
  %44 = getelementptr inbounds nuw [2 x i16], ptr %7, i64 0, i64 %43
  %45 = load i16, ptr %44, align 2, !tbaa !75
  %46 = load ptr, ptr %9, align 8, !tbaa !135
  %47 = getelementptr inbounds nuw i16, ptr %46, i32 1
  store ptr %47, ptr %9, align 8, !tbaa !135
  store i16 %45, ptr %46, align 2, !tbaa !75
  br label %48

48:                                               ; preds = %40
  %49 = load i32, ptr %8, align 4, !tbaa !61
  %50 = lshr i32 %49, 1
  store i32 %50, ptr %8, align 4, !tbaa !61
  br label %37, !llvm.loop !136

51:                                               ; preds = %37
  %52 = load ptr, ptr %3, align 8, !tbaa !29
  %53 = getelementptr inbounds nuw %struct.IpvideoContext, ptr %52, i32 0, i32 14
  %54 = load i32, ptr %53, align 8, !tbaa !73
  %55 = load ptr, ptr %9, align 8, !tbaa !135
  %56 = sext i32 %54 to i64
  %57 = getelementptr inbounds i16, ptr %55, i64 %56
  store ptr %57, ptr %9, align 8, !tbaa !135
  br label %58

58:                                               ; preds = %51
  %59 = load i32, ptr %6, align 4, !tbaa !61
  %60 = add nsw i32 %59, 1
  store i32 %60, ptr %6, align 4, !tbaa !61
  br label %29, !llvm.loop !137

61:                                               ; preds = %29
  br label %122

62:                                               ; preds = %2
  %63 = load ptr, ptr %3, align 8, !tbaa !29
  %64 = getelementptr inbounds nuw %struct.IpvideoContext, ptr %63, i32 0, i32 11
  %65 = call i32 @bytestream2_get_le16(ptr noundef %64)
  store i32 %65, ptr %8, align 4, !tbaa !61
  store i32 0, ptr %6, align 4, !tbaa !61
  br label %66

66:                                               ; preds = %118, %62
  %67 = load i32, ptr %6, align 4, !tbaa !61
  %68 = icmp slt i32 %67, 8
  br i1 %68, label %69, label %121

69:                                               ; preds = %66
  store i32 0, ptr %5, align 4, !tbaa !61
  br label %70

70:                                               ; preds = %105, %69
  %71 = load i32, ptr %5, align 4, !tbaa !61
  %72 = icmp slt i32 %71, 8
  br i1 %72, label %73, label %110

73:                                               ; preds = %70
  %74 = load i32, ptr %8, align 4, !tbaa !61
  %75 = and i32 %74, 1
  %76 = zext i32 %75 to i64
  %77 = getelementptr inbounds nuw [2 x i16], ptr %7, i64 0, i64 %76
  %78 = load i16, ptr %77, align 2, !tbaa !75
  %79 = load ptr, ptr %9, align 8, !tbaa !135
  %80 = load i32, ptr %5, align 4, !tbaa !61
  %81 = add nsw i32 %80, 1
  %82 = load ptr, ptr %3, align 8, !tbaa !29
  %83 = getelementptr inbounds nuw %struct.IpvideoContext, ptr %82, i32 0, i32 15
  %84 = load i32, ptr %83, align 4, !tbaa !72
  %85 = add nsw i32 %81, %84
  %86 = sext i32 %85 to i64
  %87 = getelementptr inbounds i16, ptr %79, i64 %86
  store i16 %78, ptr %87, align 2, !tbaa !75
  %88 = load ptr, ptr %9, align 8, !tbaa !135
  %89 = load i32, ptr %5, align 4, !tbaa !61
  %90 = load ptr, ptr %3, align 8, !tbaa !29
  %91 = getelementptr inbounds nuw %struct.IpvideoContext, ptr %90, i32 0, i32 15
  %92 = load i32, ptr %91, align 4, !tbaa !72
  %93 = add nsw i32 %89, %92
  %94 = sext i32 %93 to i64
  %95 = getelementptr inbounds i16, ptr %88, i64 %94
  store i16 %78, ptr %95, align 2, !tbaa !75
  %96 = load ptr, ptr %9, align 8, !tbaa !135
  %97 = load i32, ptr %5, align 4, !tbaa !61
  %98 = add nsw i32 %97, 1
  %99 = sext i32 %98 to i64
  %100 = getelementptr inbounds i16, ptr %96, i64 %99
  store i16 %78, ptr %100, align 2, !tbaa !75
  %101 = load ptr, ptr %9, align 8, !tbaa !135
  %102 = load i32, ptr %5, align 4, !tbaa !61
  %103 = sext i32 %102 to i64
  %104 = getelementptr inbounds i16, ptr %101, i64 %103
  store i16 %78, ptr %104, align 2, !tbaa !75
  br label %105

105:                                              ; preds = %73
  %106 = load i32, ptr %5, align 4, !tbaa !61
  %107 = add nsw i32 %106, 2
  store i32 %107, ptr %5, align 4, !tbaa !61
  %108 = load i32, ptr %8, align 4, !tbaa !61
  %109 = lshr i32 %108, 1
  store i32 %109, ptr %8, align 4, !tbaa !61
  br label %70, !llvm.loop !138

110:                                              ; preds = %70
  %111 = load ptr, ptr %3, align 8, !tbaa !29
  %112 = getelementptr inbounds nuw %struct.IpvideoContext, ptr %111, i32 0, i32 15
  %113 = load i32, ptr %112, align 4, !tbaa !72
  %114 = mul nsw i32 %113, 2
  %115 = load ptr, ptr %9, align 8, !tbaa !135
  %116 = sext i32 %114 to i64
  %117 = getelementptr inbounds i16, ptr %115, i64 %116
  store ptr %117, ptr %9, align 8, !tbaa !135
  br label %118

118:                                              ; preds = %110
  %119 = load i32, ptr %6, align 4, !tbaa !61
  %120 = add nsw i32 %119, 2
  store i32 %120, ptr %6, align 4, !tbaa !61
  br label %66, !llvm.loop !139

121:                                              ; preds = %66
  br label %122

122:                                              ; preds = %121, %61
  call void @llvm.lifetime.end.p0(i64 8, ptr %9) #11
  call void @llvm.lifetime.end.p0(i64 4, ptr %8) #11
  call void @llvm.lifetime.end.p0(i64 4, ptr %7) #11
  call void @llvm.lifetime.end.p0(i64 4, ptr %6) #11
  call void @llvm.lifetime.end.p0(i64 4, ptr %5) #11
  ret i32 0
}