; Function Attrs: nofree norecurse nosync nounwind memory(readwrite, inaccessiblemem: none) uwtable
define internal noundef i32 @ipvideo_decode_block_opcode_0x7_16(ptr noundef captures(none) %0, ptr readnone captures(none) %1) #6 {
  %3 = alloca [2 x i16], align 2
  call void @llvm.lifetime.start.p0(i64 4, ptr nonnull %3) #9
  %4 = getelementptr inbounds nuw i8, ptr %0, i64 536
  %5 = load ptr, ptr %4, align 8, !tbaa !67
  %6 = getelementptr inbounds nuw i8, ptr %0, i64 488
  %7 = getelementptr inbounds nuw i8, ptr %0, i64 496
  %8 = load ptr, ptr %7, align 8, !tbaa !60
  %9 = load ptr, ptr %6, align 8, !tbaa !58
  %10 = ptrtoint ptr %8 to i64
  %11 = ptrtoint ptr %9 to i64
  %12 = sub i64 %10, %11
  %13 = icmp slt i64 %12, 2
  br i1 %13, label %bytestream2_get_le16.exit40, label %14

14:                                               ; preds = %2
  %15 = getelementptr inbounds nuw i8, ptr %9, i64 2
  store ptr %15, ptr %6, align 8, !tbaa !53
  %16 = load i16, ptr %9, align 1, !tbaa !54
  %17 = zext i16 %16 to i32
  %.pre = ptrtoint ptr %15 to i64
  br label %bytestream2_get_le16.exit40

bytestream2_get_le16.exit40:                      ; preds = %2, %14
  %.pre-phi = phi i64 [ %.pre, %14 ], [ %10, %2 ]
  %18 = phi ptr [ %15, %14 ], [ %8, %2 ]
  %.0.i39 = phi i32 [ %17, %14 ], [ 0, %2 ]
  %19 = trunc nuw i32 %.0.i39 to i16
  store i16 %19, ptr %3, align 2, !tbaa !116
  %20 = sub i64 %10, %.pre-phi
  %21 = icmp slt i64 %20, 2
  br i1 %21, label %bytestream2_get_le16.exit38, label %22

22:                                               ; preds = %bytestream2_get_le16.exit40
  %23 = getelementptr inbounds nuw i8, ptr %18, i64 2
  store ptr %23, ptr %6, align 8, !tbaa !53
  %24 = load i16, ptr %18, align 1, !tbaa !54
  br label %bytestream2_get_le16.exit38

bytestream2_get_le16.exit38:                      ; preds = %bytestream2_get_le16.exit40, %22
  %.promoted = phi ptr [ %23, %22 ], [ %8, %bytestream2_get_le16.exit40 ]
  %.0.i37 = phi i16 [ %24, %22 ], [ 0, %bytestream2_get_le16.exit40 ]
  %25 = getelementptr inbounds nuw i8, ptr %3, i64 2
  store i16 %.0.i37, ptr %25, align 2, !tbaa !116
  %.not = icmp samesign ult i32 %.0.i39, 32768
  br i1 %.not, label %.preheader, label %51

.preheader:                                       ; preds = %bytestream2_get_le16.exit38
  %26 = getelementptr inbounds nuw i8, ptr %0, i64 544
  %27 = load i32, ptr %26, align 8, !tbaa !64
  %28 = sext i32 %27 to i64
  br label %29

29:                                               ; preds = %.preheader, %48
  %.052 = phi ptr [ %5, %.preheader ], [ %49, %48 ]
  %.03351 = phi i32 [ 0, %.preheader ], [ %50, %48 ]
  %30 = phi ptr [ %.promoted, %.preheader ], [ %40, %48 ]
  %31 = ptrtoint ptr %30 to i64
  %32 = sub i64 %10, %31
  %33 = icmp slt i64 %32, 1
  br i1 %33, label %34, label %35

34:                                               ; preds = %29
  store ptr %8, ptr %6, align 8, !tbaa !58
  br label %bytestream2_get_byte.exit

35:                                               ; preds = %29
  %36 = getelementptr inbounds nuw i8, ptr %30, i64 1
  store ptr %36, ptr %6, align 8, !tbaa !53
  %37 = load i8, ptr %30, align 1, !tbaa !54
  %38 = zext i8 %37 to i32
  %39 = or disjoint i32 %38, 256
  br label %bytestream2_get_byte.exit

bytestream2_get_byte.exit:                        ; preds = %34, %35
  %40 = phi ptr [ %8, %34 ], [ %36, %35 ]
  %.0.i41 = phi i32 [ 256, %34 ], [ %39, %35 ]
  br label %41

41:                                               ; preds = %bytestream2_get_byte.exit, %41
  %.150 = phi ptr [ %.052, %bytestream2_get_byte.exit ], [ %46, %41 ]
  %.03049 = phi i32 [ %.0.i41, %bytestream2_get_byte.exit ], [ %47, %41 ]
  %42 = and i32 %.03049, 1
  %43 = zext nneg i32 %42 to i64
  %44 = getelementptr inbounds nuw [2 x i16], ptr %3, i64 0, i64 %43
  %45 = load i16, ptr %44, align 2, !tbaa !116
  %46 = getelementptr inbounds nuw i8, ptr %.150, i64 2
  store i16 %45, ptr %.150, align 2, !tbaa !116
  %47 = lshr i32 %.03049, 1
  %.not36 = icmp eq i32 %47, 1
  br i1 %.not36, label %48, label %41, !llvm.loop !118

48:                                               ; preds = %41
  %49 = getelementptr inbounds i16, ptr %46, i64 %28
  %50 = add nuw nsw i32 %.03351, 1
  %exitcond.not = icmp eq i32 %50, 8
  br i1 %exitcond.not, label %.loopexit, label %29, !llvm.loop !119

51:                                               ; preds = %bytestream2_get_le16.exit38
  %52 = ptrtoint ptr %.promoted to i64
  %53 = sub i64 %10, %52
  %54 = icmp slt i64 %53, 2
  br i1 %54, label %55, label %56

55:                                               ; preds = %51
  store ptr %8, ptr %6, align 8, !tbaa !58
  br label %bytestream2_get_le16.exit

56:                                               ; preds = %51
  %57 = getelementptr inbounds nuw i8, ptr %.promoted, i64 2
  store ptr %57, ptr %6, align 8, !tbaa !53
  %58 = load i16, ptr %.promoted, align 1, !tbaa !54
  %59 = zext i16 %58 to i32
  br label %bytestream2_get_le16.exit

bytestream2_get_le16.exit:                        ; preds = %55, %56
  %.0.i = phi i32 [ 0, %55 ], [ %59, %56 ]
  %60 = getelementptr inbounds nuw i8, ptr %0, i64 548
  %61 = load i32, ptr %60, align 4, !tbaa !63
  %62 = shl nsw i32 %61, 1
  %63 = sext i32 %62 to i64
  %64 = sext i32 %61 to i64
  br label %.preheader42

.preheader42:                                     ; preds = %bytestream2_get_le16.exit, %75
  %.248 = phi ptr [ %5, %bytestream2_get_le16.exit ], [ %76, %75 ]
  %.13147 = phi i32 [ %.0.i, %bytestream2_get_le16.exit ], [ %73, %75 ]
  %.13446 = phi i32 [ 0, %bytestream2_get_le16.exit ], [ %77, %75 ]
  %invariant.gep = getelementptr i16, ptr %.248, i64 %64
  %invariant.gep58 = getelementptr i16, ptr %.248, i64 %64
  br label %65

65:                                               ; preds = %.preheader42, %65
  %indvars.iv = phi i64 [ 0, %.preheader42 ], [ %indvars.iv.next, %65 ]
  %.23245 = phi i32 [ %.13147, %.preheader42 ], [ %73, %65 ]
  %66 = and i32 %.23245, 1
  %67 = zext nneg i32 %66 to i64
  %68 = getelementptr inbounds nuw [2 x i16], ptr %3, i64 0, i64 %67
  %69 = load i16, ptr %68, align 2, !tbaa !116
  %70 = or disjoint i64 %indvars.iv, 1
  %gep = getelementptr i16, ptr %invariant.gep, i64 %70
  store i16 %69, ptr %gep, align 2, !tbaa !116
  %gep59 = getelementptr i16, ptr %invariant.gep58, i64 %indvars.iv
  store i16 %69, ptr %gep59, align 2, !tbaa !116
  %71 = getelementptr inbounds nuw i16, ptr %.248, i64 %70
  store i16 %69, ptr %71, align 2, !tbaa !116
  %72 = getelementptr inbounds nuw i16, ptr %.248, i64 %indvars.iv
  store i16 %69, ptr %72, align 2, !tbaa !116
  %indvars.iv.next = add nuw nsw i64 %indvars.iv, 2
  %73 = lshr i32 %.23245, 1
  %74 = icmp samesign ult i64 %indvars.iv, 6
  br i1 %74, label %65, label %75, !llvm.loop !120

75:                                               ; preds = %65
  %76 = getelementptr inbounds i16, ptr %.248, i64 %63
  %77 = add nuw nsw i32 %.13446, 2
  %78 = icmp samesign ult i32 %.13446, 6
  br i1 %78, label %.preheader42, label %.loopexit, !llvm.loop !121

.loopexit:                                        ; preds = %75, %48
  call void @llvm.lifetime.end.p0(i64 4, ptr nonnull %3) #9
  ret i32 0
}